target datalayout = "e-m:e-p270:32:32-p271:32:32-p272:64:64-i64:64-i128:128-f80:128-n8:16:32:64-S128"
target triple = "x86_64-pc-linux-gnu"

@hf_ecat_reg_syncman = internal global i32 0, align 4
@hf_ecat_reg_syncman_start = internal global i32 0, align 4
@hf_ecat_reg_syncman_len = internal global i32 0, align 4
@hf_ecat_reg_syncman_ctrlstatus = internal global i32 0, align 4
@hf_ecat_reg_syncman_sm_enable = internal global i32 0, align 4
@ett_ecat_reg_syncman = internal global i32 0, align 4
@ett_ecat_reg_syncman_ctrlstatus = internal global i32 0, align 4
@ett_ecat_reg_syncman_sm_enable = internal global i32 0, align 4
@ecat_reg_800.reg6 = internal constant [7 x ptr] [ptr @hf_ecat_reg_syncman_enable, ptr @hf_ecat_reg_syncman_repeatreq, ptr @hf_ecat_reg_syncman_latchsmchg_ecat, ptr @hf_ecat_reg_syncman_latchsmchg_pdi, ptr @hf_ecat_reg_syncman_deactivate, ptr @hf_ecat_reg_syncman_repeatack, ptr null], align 16

; Function Attrs: null_pointer_is_valid sspstrong uwtable
define internal i32 @ecat_reg_800(ptr noundef %0, ptr noundef %1, ptr noundef %2, i32 noundef %3) #0 {
  %5 = alloca ptr, align 8
  %6 = alloca ptr, align 8
  %7 = alloca ptr, align 8
  %8 = alloca i32, align 4
  %9 = alloca ptr, align 8
  %10 = alloca ptr, align 8
  store ptr %0, ptr %5, align 8
  store ptr %1, ptr %6, align 8
  store ptr %2, ptr %7, align 8
  store i32 %3, ptr %8, align 4
  call void @llvm.lifetime.start.p0(i64 8, ptr %9) #6
  call void @llvm.lifetime.start.p0(i64 8, ptr %10) #6
  %11 = load ptr, ptr %6, align 8
  %12 = load i32, ptr @hf_ecat_reg_syncman, align 4
  %13 = load ptr, ptr %7, align 8
  %14 = load i32, ptr %8, align 4
  %15 = call ptr @proto_tree_add_item(ptr noundef %11, i32 noundef %12, ptr noundef %13, i32 noundef %14, i32 noundef 8, i32 noundef 0)
  store ptr %15, ptr %9, align 8
  %16 = load ptr, ptr %9, align 8
  %17 = load i32, ptr @ett_ecat_reg_syncman, align 4
  %18 = call ptr @proto_item_add_subtree(ptr noundef %16, i32 noundef %17)
  store ptr %18, ptr %10, align 8
  %19 = load ptr, ptr %10, align 8
  %20 = load i32, ptr @hf_ecat_reg_syncman_start, align 4
  %21 = load ptr, ptr %7, align 8
  %22 = load i32, ptr %8, align 4
  %23 = call ptr @proto_tree_add_item(ptr noundef %19, i32 noundef %20, ptr noundef %21, i32 noundef %22, i32 noundef 2, i32 noundef -2147483648)
  %24 = load i32, ptr %8, align 4
  %25 = add i32 %24, 2
  store i32 %25, ptr %8, align 4
  %26 = load ptr, ptr %10, align 8
  %27 = load i32, ptr @hf_ecat_reg_syncman_len, align 4
  %28 = load ptr, ptr %7, align 8
  %29 = load i32, ptr %8, align 4
  %30 = call ptr @proto_tree_add_item(ptr noundef %26, i32 noundef %27, ptr noundef %28, i32 noundef %29, i32 noundef 2, i32 noundef -2147483648)
  %31 = load i32, ptr %8, align 4
  %32 = add i32 %31, 2
  store i32 %32, ptr %8, align 4
  %33 = load ptr, ptr %10, align 8
  %34 = load ptr, ptr %7, align 8
  %35 = load i32, ptr %8, align 4
  %36 = load i32, ptr @hf_ecat_reg_syncman_ctrlstatus, align 4
  %37 = load i32, ptr @ett_ecat_reg_syncman_ctrlstatus, align 4
  %38 = call ptr @proto_tree_add_bitmask(ptr noundef %33, ptr noundef %34, i32 noundef %35, i32 noundef %36, i32 noundef %37, ptr noundef @ecat_reg_800.reg4, i32 noundef -2147483648)
  %39 = load i32, ptr %8, align 4
  %40 = add i32 %39, 2
  store i32 %40, ptr %8, align 4
  %41 = load ptr, ptr %10, align 8
  %42 = load ptr, ptr %7, align 8
  %43 = load i32, ptr %8, align 4
  %44 = load i32, ptr @hf_ecat_reg_syncman_sm_enable, align 4
  %45 = load i32, ptr @ett_ecat_reg_syncman_sm_enable, align 4
  %46 = call ptr @proto_tree_add_bitmask(ptr noundef %41, ptr noundef %42, i32 noundef %43, i32 noundef %44, i32 noundef %45, ptr noundef @ecat_reg_800.reg6, i32 noundef -2147483648)
  call void @llvm.lifetime.end.p0(i64 8, ptr %10) #6
  call void @llvm.lifetime.end.p0(i64 8, ptr %9) #6
  ret i32 8
}