; Function Attrs: null_pointer_is_valid sspstrong uwtable
define internal noundef i32 @ecat_reg_800(ptr readnone captures(none) %0, ptr noundef %1, ptr noundef %2, i32 noundef %3) #0 {
  %5 = load i32, ptr @hf_ecat_reg_syncman, align 4
  %6 = tail call ptr @proto_tree_add_item(ptr noundef %1, i32 noundef %5, ptr noundef %2, i32 noundef %3, i32 noundef 8, i32 noundef 0)
  %7 = load i32, ptr @ett_ecat_reg_syncman, align 4
  %8 = tail call ptr @proto_item_add_subtree(ptr noundef %6, i32 noundef %7)
  %9 = load i32, ptr @hf_ecat_reg_syncman_start, align 4
  %10 = tail call ptr @proto_tree_add_item(ptr noundef %8, i32 noundef %9, ptr noundef %2, i32 noundef %3, i32 noundef 2, i32 noundef -2147483648)
  %11 = add i32 %3, 2
  %12 = load i32, ptr @hf_ecat_reg_syncman_len, align 4
  %13 = tail call ptr @proto_tree_add_item(ptr noundef %8, i32 noundef %12, ptr noundef %2, i32 noundef %11, i32 noundef 2, i32 noundef -2147483648)
  %14 = add i32 %3, 4
  %15 = load i32, ptr @hf_ecat_reg_syncman_ctrlstatus, align 4
  %16 = load i32, ptr @ett_ecat_reg_syncman_ctrlstatus, align 4
  %17 = tail call ptr @proto_tree_add_bitmask(ptr noundef %8, ptr noundef %2, i32 noundef %14, i32 noundef %15, i32 noundef %16, ptr noundef nonnull @ecat_reg_800.reg4, i32 noundef -2147483648)
  %18 = add i32 %3, 6
  %19 = load i32, ptr @hf_ecat_reg_syncman_sm_enable, align 4
  %20 = load i32, ptr @ett_ecat_reg_syncman_sm_enable, align 4
  %21 = tail call ptr @proto_tree_add_bitmask(ptr noundef %8, ptr noundef %2, i32 noundef %18, i32 noundef %19, i32 noundef %20, ptr noundef nonnull @ecat_reg_800.reg6, i32 noundef -2147483648)
  ret i32 8
}